
Projeto_LASD.elf:     file format elf32-avr

Sections:
Idx Name          Size      VMA       LMA       File off  Algn
  0 .data         00000064  00800100  00000bc8  00000c5c  2**0
                  CONTENTS, ALLOC, LOAD, DATA
  1 .text         00000bc8  00000000  00000000  00000094  2**1
                  CONTENTS, ALLOC, LOAD, READONLY, CODE
  2 .bss          00000207  00800164  00800164  00000cc0  2**0
                  ALLOC
  3 .comment      00000030  00000000  00000000  00000cc0  2**0
                  CONTENTS, READONLY
  4 .note.gnu.avr.deviceinfo 00000040  00000000  00000000  00000cf0  2**2
                  CONTENTS, READONLY
  5 .debug_aranges 00000128  00000000  00000000  00000d30  2**0
                  CONTENTS, READONLY, DEBUGGING
  6 .debug_info   0000199e  00000000  00000000  00000e58  2**0
                  CONTENTS, READONLY, DEBUGGING
  7 .debug_abbrev 00000b08  00000000  00000000  000027f6  2**0
                  CONTENTS, READONLY, DEBUGGING
  8 .debug_line   00000d33  00000000  00000000  000032fe  2**0
                  CONTENTS, READONLY, DEBUGGING
  9 .debug_frame  00000324  00000000  00000000  00004034  2**2
                  CONTENTS, READONLY, DEBUGGING
 10 .debug_str    000006b5  00000000  00000000  00004358  2**0
                  CONTENTS, READONLY, DEBUGGING
 11 .debug_loc    00000c07  00000000  00000000  00004a0d  2**0
                  CONTENTS, READONLY, DEBUGGING
 12 .debug_ranges 000000f8  00000000  00000000  00005614  2**0
                  CONTENTS, READONLY, DEBUGGING

Disassembly of section .text:

00000000 <__vectors>:
   0:	0c 94 24 01 	jmp	0x248	; 0x248 <__ctors_end>
   4:	0c 94 ac 02 	jmp	0x558	; 0x558 <__vector_1>
   8:	0c 94 e6 02 	jmp	0x5cc	; 0x5cc <__vector_2>
   c:	0c 94 41 01 	jmp	0x282	; 0x282 <__bad_interrupt>
  10:	0c 94 41 01 	jmp	0x282	; 0x282 <__bad_interrupt>
  14:	0c 94 41 01 	jmp	0x282	; 0x282 <__bad_interrupt>
  18:	0c 94 41 01 	jmp	0x282	; 0x282 <__bad_interrupt>
  1c:	0c 94 41 01 	jmp	0x282	; 0x282 <__bad_interrupt>
  20:	0c 94 41 01 	jmp	0x282	; 0x282 <__bad_interrupt>
  24:	0c 94 41 01 	jmp	0x282	; 0x282 <__bad_interrupt>
  28:	0c 94 75 03 	jmp	0x6ea	; 0x6ea <__vector_10>
  2c:	0c 94 41 01 	jmp	0x282	; 0x282 <__bad_interrupt>
  30:	0c 94 41 01 	jmp	0x282	; 0x282 <__bad_interrupt>
  34:	0c 94 41 01 	jmp	0x282	; 0x282 <__bad_interrupt>
  38:	0c 94 06 03 	jmp	0x60c	; 0x60c <__vector_14>
  3c:	0c 94 41 01 	jmp	0x282	; 0x282 <__bad_interrupt>
  40:	0c 94 41 01 	jmp	0x282	; 0x282 <__bad_interrupt>
  44:	0c 94 41 01 	jmp	0x282	; 0x282 <__bad_interrupt>
  48:	0c 94 3d 03 	jmp	0x67a	; 0x67a <__vector_18>
  4c:	0c 94 41 01 	jmp	0x282	; 0x282 <__bad_interrupt>
  50:	0c 94 41 01 	jmp	0x282	; 0x282 <__bad_interrupt>
  54:	0c 94 41 01 	jmp	0x282	; 0x282 <__bad_interrupt>
  58:	0c 94 41 01 	jmp	0x282	; 0x282 <__bad_interrupt>
  5c:	0c 94 41 01 	jmp	0x282	; 0x282 <__bad_interrupt>
  60:	0c 94 41 01 	jmp	0x282	; 0x282 <__bad_interrupt>
  64:	0c 94 41 01 	jmp	0x282	; 0x282 <__bad_interrupt>

00000068 <CHARSET>:
  68:	00 00 00 00 00 00 00 5f 00 00 00 07 00 07 00 14     ......._........
  78:	7f 14 7f 14 24 2a 7f 2a 12 23 13 08 64 62 36 49     ....$*.*.#..db6I
  88:	55 22 50 00 05 03 00 00 00 1c 22 41 00 00 41 22     U"P......."A..A"
  98:	1c 00 14 08 3e 08 14 08 08 3e 08 08 00 50 30 00     ....>....>...P0.
  a8:	00 08 08 08 08 08 00 60 60 00 00 20 10 08 04 02     .......``.. ....
  b8:	3e 51 49 45 3e 00 42 7f 40 00 42 61 51 49 46 21     >QIE>.B.@.BaQIF!
  c8:	41 45 4b 31 18 14 12 7f 10 27 45 45 45 39 3c 4a     AEK1.....'EEE9<J
  d8:	49 49 30 01 71 09 05 03 36 49 49 49 36 06 49 49     II0.q...6III6.II
  e8:	29 1e 00 36 36 00 00 00 56 36 00 00 08 14 22 41     )..66...V6...."A
  f8:	00 14 14 14 14 14 00 41 22 14 08 02 01 51 09 06     .......A"....Q..
 108:	32 49 79 41 3e 7e 11 11 11 7e 7f 49 49 49 36 3e     2IyA>~...~.III6>
 118:	41 41 41 22 7f 41 41 22 1c 7f 49 49 49 41 7f 09     AAA".AA"..IIIA..
 128:	09 09 01 3e 41 49 49 7a 7f 08 08 08 7f 00 41 7f     ...>AIIz......A.
 138:	41 00 20 40 41 3f 01 7f 08 14 22 41 7f 40 40 40     A. @A?...."A.@@@
 148:	40 7f 02 0c 02 7f 7f 04 08 10 7f 3e 41 41 41 3e     @..........>AAA>
 158:	7f 09 09 09 06 3e 41 51 21 5e 7f 09 19 29 46 46     .....>AQ!^...)FF
 168:	49 49 49 31 01 01 7f 01 01 3f 40 40 40 3f 1f 20     III1.....?@@@?. 
 178:	40 20 1f 3f 40 38 40 3f 63 14 08 14 63 07 08 70     @ .?@8@?c...c..p
 188:	08 07 61 51 49 45 43 00 7f 41 41 00 02 04 08 10     ..aQIEC..AA.....
 198:	20 00 41 41 7f 00 04 02 01 02 04 40 40 40 40 40      .AA.......@@@@@
 1a8:	00 01 02 04 00 20 54 54 54 78 7f 48 44 44 38 38     ..... TTTx.HDD88
 1b8:	44 44 44 20 38 44 44 48 7f 38 54 54 54 18 08 7e     DDD 8DDH.8TTT..~
 1c8:	09 01 02 0c 52 52 52 3e 7f 08 04 04 78 00 44 7d     ....RRR>....x.D}
 1d8:	40 00 20 40 44 3d 00 7f 10 28 44 00 00 41 7f 40     @. @D=...(D..A.@
 1e8:	00 7c 04 18 04 78 7c 08 04 04 78 38 44 44 44 38     .|...x|...x8DDD8
 1f8:	7c 14 14 14 08 08 14 14 18 7c 7c 08 04 04 08 48     |........||....H
 208:	54 54 54 20 04 3f 44 40 20 3c 40 40 20 7c 1c 20     TTT .?D@ <@@ |. 
 218:	40 20 1c 3c 40 30 40 3c 44 28 10 28 44 0c 50 50     @ .<@0@<D(.(D.PP
 228:	50 3c 44 64 54 4c 44 00 08 36 41 00 00 00 7f 00     P<DdTLD..6A.....
 238:	00 00 41 36 08 00 10 08 08 10 08 00 00 00 00 00     ..A6............

00000248 <__ctors_end>:
 248:	11 24       	eor	r1, r1
 24a:	1f be       	out	0x3f, r1	; 63
 24c:	cf ef       	ldi	r28, 0xFF	; 255
 24e:	d8 e0       	ldi	r29, 0x08	; 8
 250:	de bf       	out	0x3e, r29	; 62
 252:	cd bf       	out	0x3d, r28	; 61

00000254 <__do_copy_data>:
 254:	11 e0       	ldi	r17, 0x01	; 1
 256:	a0 e0       	ldi	r26, 0x00	; 0
 258:	b1 e0       	ldi	r27, 0x01	; 1
 25a:	e8 ec       	ldi	r30, 0xC8	; 200
 25c:	fb e0       	ldi	r31, 0x0B	; 11
 25e:	02 c0       	rjmp	.+4      	; 0x264 <__do_copy_data+0x10>
 260:	05 90       	lpm	r0, Z+
 262:	0d 92       	st	X+, r0
 264:	a4 36       	cpi	r26, 0x64	; 100
 266:	b1 07       	cpc	r27, r17
 268:	d9 f7       	brne	.-10     	; 0x260 <__do_copy_data+0xc>

0000026a <__do_clear_bss>:
 26a:	23 e0       	ldi	r18, 0x03	; 3
 26c:	a4 e6       	ldi	r26, 0x64	; 100
 26e:	b1 e0       	ldi	r27, 0x01	; 1
 270:	01 c0       	rjmp	.+2      	; 0x274 <.do_clear_bss_start>

00000272 <.do_clear_bss_loop>:
 272:	1d 92       	st	X+, r1

00000274 <.do_clear_bss_start>:
 274:	ab 36       	cpi	r26, 0x6B	; 107
 276:	b2 07       	cpc	r27, r18
 278:	e1 f7       	brne	.-8      	; 0x272 <.do_clear_bss_loop>
 27a:	0e 94 bd 03 	call	0x77a	; 0x77a <main>
 27e:	0c 94 e2 05 	jmp	0xbc4	; 0xbc4 <_exit>

00000282 <__bad_interrupt>:
 282:	0c 94 00 00 	jmp	0	; 0x0 <__vectors>

00000286 <int2string>:
		valor /=10; //pega o inteiro da divis„o por 10
		disp--;
	}while (valor!=0);
}

void start_game_config(uint8_t dezena, uint8_t unidade){
 286:	90 e0       	ldi	r25, 0x00	; 0
 288:	06 c0       	rjmp	.+12     	; 0x296 <int2string+0x10>
 28a:	fb 01       	movw	r30, r22
 28c:	e9 0f       	add	r30, r25
 28e:	f1 1d       	adc	r31, r1
 290:	20 e3       	ldi	r18, 0x30	; 48
 292:	20 83       	st	Z, r18
 294:	9f 5f       	subi	r25, 0xFF	; 255
 296:	92 30       	cpi	r25, 0x02	; 2
 298:	c0 f3       	brcs	.-16     	; 0x28a <int2string+0x4>
 29a:	fb 01       	movw	r30, r22
 29c:	31 96       	adiw	r30, 0x01	; 1
 29e:	9d ec       	ldi	r25, 0xCD	; 205
 2a0:	89 9f       	mul	r24, r25
 2a2:	91 2d       	mov	r25, r1
 2a4:	11 24       	eor	r1, r1
 2a6:	96 95       	lsr	r25
 2a8:	96 95       	lsr	r25
 2aa:	96 95       	lsr	r25
 2ac:	39 2f       	mov	r19, r25
 2ae:	33 0f       	add	r19, r19
 2b0:	23 2f       	mov	r18, r19
 2b2:	22 0f       	add	r18, r18
 2b4:	22 0f       	add	r18, r18
 2b6:	23 0f       	add	r18, r19
 2b8:	82 1b       	sub	r24, r18
 2ba:	80 5d       	subi	r24, 0xD0	; 208
 2bc:	80 83       	st	Z, r24
 2be:	89 2f       	mov	r24, r25
 2c0:	31 97       	sbiw	r30, 0x01	; 1
 2c2:	91 11       	cpse	r25, r1
 2c4:	ec cf       	rjmp	.-40     	; 0x29e <int2string+0x18>
 2c6:	08 95       	ret

000002c8 <game_running_display_init>:
}
void game_running_display_init(){
	// FunÁ„o respons·vel por mostrar a tela inicial do jogo
	
	// Tela inicial do Jogo
	nokia_lcd_clear(); //Limpa o LCD
 2c8:	0e 94 d0 04 	call	0x9a0	; 0x9a0 <nokia_lcd_clear>
	nokia_lcd_set_cursor(0,0);
 2cc:	60 e0       	ldi	r22, 0x00	; 0
 2ce:	80 e0       	ldi	r24, 0x00	; 0
 2d0:	0e 94 a9 05 	call	0xb52	; 0xb52 <nokia_lcd_set_cursor>
	nokia_lcd_write_string("BUZZ",2); //Escreve um texto do tamanho 2
 2d4:	62 e0       	ldi	r22, 0x02	; 2
 2d6:	81 e0       	ldi	r24, 0x01	; 1
 2d8:	91 e0       	ldi	r25, 0x01	; 1
 2da:	0e 94 98 05 	call	0xb30	; 0xb30 <nokia_lcd_write_string>
	nokia_lcd_set_cursor(0,15);
 2de:	6f e0       	ldi	r22, 0x0F	; 15
 2e0:	80 e0       	ldi	r24, 0x00	; 0
 2e2:	0e 94 a9 05 	call	0xb52	; 0xb52 <nokia_lcd_set_cursor>
	nokia_lcd_write_string("WIRE",2); //Escreve um texto do tamanho 2
 2e6:	62 e0       	ldi	r22, 0x02	; 2
 2e8:	86 e0       	ldi	r24, 0x06	; 6
 2ea:	91 e0       	ldi	r25, 0x01	; 1
 2ec:	0e 94 98 05 	call	0xb30	; 0xb30 <nokia_lcd_write_string>
	nokia_lcd_set_cursor(0,30);
 2f0:	6e e1       	ldi	r22, 0x1E	; 30
 2f2:	80 e0       	ldi	r24, 0x00	; 0
 2f4:	0e 94 a9 05 	call	0xb52	; 0xb52 <nokia_lcd_set_cursor>
	nokia_lcd_write_string("Ultimate",1); //Escreve um texto do tamanho 2
 2f8:	61 e0       	ldi	r22, 0x01	; 1
 2fa:	8b e0       	ldi	r24, 0x0B	; 11
 2fc:	91 e0       	ldi	r25, 0x01	; 1
 2fe:	0e 94 98 05 	call	0xb30	; 0xb30 <nokia_lcd_write_string>
	nokia_lcd_set_cursor(0,40);
 302:	68 e2       	ldi	r22, 0x28	; 40
 304:	80 e0       	ldi	r24, 0x00	; 0
 306:	0e 94 a9 05 	call	0xb52	; 0xb52 <nokia_lcd_set_cursor>
	nokia_lcd_write_string("Countdown",1); //Escreve um texto do tamanho 2
 30a:	61 e0       	ldi	r22, 0x01	; 1
 30c:	84 e1       	ldi	r24, 0x14	; 20
 30e:	91 e0       	ldi	r25, 0x01	; 1
 310:	0e 94 98 05 	call	0xb30	; 0xb30 <nokia_lcd_write_string>
	nokia_lcd_render();
 314:	0e 94 ae 05 	call	0xb5c	; 0xb5c <nokia_lcd_render>
 318:	08 95       	ret

0000031a <game_running_display_config>:
	
}
void game_running_display_config(){
	// Tela que configura o nivel de dificuldade do jogo
	
	nokia_lcd_clear(); //Limpa o LCD
 31a:	0e 94 d0 04 	call	0x9a0	; 0x9a0 <nokia_lcd_clear>
	nokia_lcd_set_cursor(0,0);
 31e:	60 e0       	ldi	r22, 0x00	; 0
 320:	80 e0       	ldi	r24, 0x00	; 0
 322:	0e 94 a9 05 	call	0xb52	; 0xb52 <nokia_lcd_set_cursor>
	nokia_lcd_write_string("Configuracao",1);
 326:	61 e0       	ldi	r22, 0x01	; 1
 328:	8e e1       	ldi	r24, 0x1E	; 30
 32a:	91 e0       	ldi	r25, 0x01	; 1
 32c:	0e 94 98 05 	call	0xb30	; 0xb30 <nokia_lcd_write_string>
	nokia_lcd_set_cursor(0,20);
 330:	64 e1       	ldi	r22, 0x14	; 20
 332:	80 e0       	ldi	r24, 0x00	; 0
 334:	0e 94 a9 05 	call	0xb52	; 0xb52 <nokia_lcd_set_cursor>
	nokia_lcd_write_string("1: Facil",1);
 338:	61 e0       	ldi	r22, 0x01	; 1
 33a:	8b e2       	ldi	r24, 0x2B	; 43
 33c:	91 e0       	ldi	r25, 0x01	; 1
 33e:	0e 94 98 05 	call	0xb30	; 0xb30 <nokia_lcd_write_string>
	nokia_lcd_set_cursor(0,30);
 342:	6e e1       	ldi	r22, 0x1E	; 30
 344:	80 e0       	ldi	r24, 0x00	; 0
 346:	0e 94 a9 05 	call	0xb52	; 0xb52 <nokia_lcd_set_cursor>
	nokia_lcd_write_string("2: Normal",1);
 34a:	61 e0       	ldi	r22, 0x01	; 1
 34c:	84 e3       	ldi	r24, 0x34	; 52
 34e:	91 e0       	ldi	r25, 0x01	; 1
 350:	0e 94 98 05 	call	0xb30	; 0xb30 <nokia_lcd_write_string>
	nokia_lcd_set_cursor(0,40);
 354:	68 e2       	ldi	r22, 0x28	; 40
 356:	80 e0       	ldi	r24, 0x00	; 0
 358:	0e 94 a9 05 	call	0xb52	; 0xb52 <nokia_lcd_set_cursor>
	nokia_lcd_write_string("3: Dificil",1);
 35c:	61 e0       	ldi	r22, 0x01	; 1
 35e:	8e e3       	ldi	r24, 0x3E	; 62
 360:	91 e0       	ldi	r25, 0x01	; 1
 362:	0e 94 98 05 	call	0xb30	; 0xb30 <nokia_lcd_write_string>
	nokia_lcd_render();
 366:	0e 94 ae 05 	call	0xb5c	; 0xb5c <nokia_lcd_render>
 36a:	08 95       	ret

0000036c <game_running_display_countdwown>:
	
}
void game_running_display_countdwown(uint8_t contador){
 36c:	cf 93       	push	r28
 36e:	c8 2f       	mov	r28, r24
	// Tela que mostra a contagem regressiva durante o jogo
	
	
	nokia_lcd_clear(); //Limpa o LCD
 370:	0e 94 d0 04 	call	0x9a0	; 0x9a0 <nokia_lcd_clear>
	nokia_lcd_set_cursor(0, 0);
 374:	60 e0       	ldi	r22, 0x00	; 0
 376:	80 e0       	ldi	r24, 0x00	; 0
 378:	0e 94 a9 05 	call	0xb52	; 0xb52 <nokia_lcd_set_cursor>
	nokia_lcd_write_string("GO",1); //Escreve a leitura no buffer do LCD
 37c:	61 e0       	ldi	r22, 0x01	; 1
 37e:	89 e4       	ldi	r24, 0x49	; 73
 380:	91 e0       	ldi	r25, 0x01	; 1
 382:	0e 94 98 05 	call	0xb30	; 0xb30 <nokia_lcd_write_string>
	int2string(contador, contador_string_num);
 386:	63 e6       	ldi	r22, 0x63	; 99
 388:	73 e0       	ldi	r23, 0x03	; 3
 38a:	8c 2f       	mov	r24, r28
 38c:	0e 94 43 01 	call	0x286	; 0x286 <int2string>
	nokia_lcd_set_cursor(20, 15);
 390:	6f e0       	ldi	r22, 0x0F	; 15
 392:	84 e1       	ldi	r24, 0x14	; 20
 394:	0e 94 a9 05 	call	0xb52	; 0xb52 <nokia_lcd_set_cursor>
	nokia_lcd_write_string(contador_string_num,4); //Escreve a leitura no buffer do LCD
 398:	64 e0       	ldi	r22, 0x04	; 4
 39a:	83 e6       	ldi	r24, 0x63	; 99
 39c:	93 e0       	ldi	r25, 0x03	; 3
 39e:	0e 94 98 05 	call	0xb30	; 0xb30 <nokia_lcd_write_string>
	nokia_lcd_render(); //Atualiza a tela do display com o conte√∫do do buffer
 3a2:	0e 94 ae 05 	call	0xb5c	; 0xb5c <nokia_lcd_render>
	#else
		//round up by default
		__ticks_dc = (uint32_t)(ceil(fabs(__tmp)));
	#endif

	__builtin_avr_delay_cycles(__ticks_dc);
 3a6:	2f ef       	ldi	r18, 0xFF	; 255
 3a8:	81 ee       	ldi	r24, 0xE1	; 225
 3aa:	94 e0       	ldi	r25, 0x04	; 4
 3ac:	21 50       	subi	r18, 0x01	; 1
 3ae:	80 40       	sbci	r24, 0x00	; 0
 3b0:	90 40       	sbci	r25, 0x00	; 0
 3b2:	e1 f7       	brne	.-8      	; 0x3ac <game_running_display_countdwown+0x40>
 3b4:	00 c0       	rjmp	.+0      	; 0x3b6 <game_running_display_countdwown+0x4a>
 3b6:	00 00       	nop
	_delay_ms(100);
	
}
 3b8:	cf 91       	pop	r28
 3ba:	08 95       	ret

000003bc <game_running_display_transit_start>:
uint8_t game_running_display_transit_start(){
	
	nokia_lcd_clear(); //Limpa o LCD
 3bc:	0e 94 d0 04 	call	0x9a0	; 0x9a0 <nokia_lcd_clear>
	nokia_lcd_set_cursor(30,15);
 3c0:	6f e0       	ldi	r22, 0x0F	; 15
 3c2:	8e e1       	ldi	r24, 0x1E	; 30
 3c4:	0e 94 a9 05 	call	0xb52	; 0xb52 <nokia_lcd_set_cursor>
	nokia_lcd_write_string("3",4);
 3c8:	64 e0       	ldi	r22, 0x04	; 4
 3ca:	8c e4       	ldi	r24, 0x4C	; 76
 3cc:	91 e0       	ldi	r25, 0x01	; 1
 3ce:	0e 94 98 05 	call	0xb30	; 0xb30 <nokia_lcd_write_string>
	nokia_lcd_render();
 3d2:	0e 94 ae 05 	call	0xb5c	; 0xb5c <nokia_lcd_render>
 3d6:	2f ef       	ldi	r18, 0xFF	; 255
 3d8:	83 ed       	ldi	r24, 0xD3	; 211
 3da:	90 e3       	ldi	r25, 0x30	; 48
 3dc:	21 50       	subi	r18, 0x01	; 1
 3de:	80 40       	sbci	r24, 0x00	; 0
 3e0:	90 40       	sbci	r25, 0x00	; 0
 3e2:	e1 f7       	brne	.-8      	; 0x3dc <game_running_display_transit_start+0x20>
 3e4:	00 c0       	rjmp	.+0      	; 0x3e6 <game_running_display_transit_start+0x2a>
 3e6:	00 00       	nop
	_delay_ms(1000);
	
	
	nokia_lcd_clear(); //Limpa o LCD
 3e8:	0e 94 d0 04 	call	0x9a0	; 0x9a0 <nokia_lcd_clear>
	nokia_lcd_set_cursor(30,15);
 3ec:	6f e0       	ldi	r22, 0x0F	; 15
 3ee:	8e e1       	ldi	r24, 0x1E	; 30
 3f0:	0e 94 a9 05 	call	0xb52	; 0xb52 <nokia_lcd_set_cursor>
	nokia_lcd_write_string("2",4);
 3f4:	64 e0       	ldi	r22, 0x04	; 4
 3f6:	8e e4       	ldi	r24, 0x4E	; 78
 3f8:	91 e0       	ldi	r25, 0x01	; 1
 3fa:	0e 94 98 05 	call	0xb30	; 0xb30 <nokia_lcd_write_string>
	nokia_lcd_render();
 3fe:	0e 94 ae 05 	call	0xb5c	; 0xb5c <nokia_lcd_render>
 402:	2f ef       	ldi	r18, 0xFF	; 255
 404:	83 ed       	ldi	r24, 0xD3	; 211
 406:	90 e3       	ldi	r25, 0x30	; 48
 408:	21 50       	subi	r18, 0x01	; 1
 40a:	80 40       	sbci	r24, 0x00	; 0
 40c:	90 40       	sbci	r25, 0x00	; 0
 40e:	e1 f7       	brne	.-8      	; 0x408 <__LOCK_REGION_LENGTH__+0x8>
 410:	00 c0       	rjmp	.+0      	; 0x412 <__LOCK_REGION_LENGTH__+0x12>
 412:	00 00       	nop
	_delay_ms(1000);
	
	nokia_lcd_clear(); //Limpa o LCD
 414:	0e 94 d0 04 	call	0x9a0	; 0x9a0 <nokia_lcd_clear>
	nokia_lcd_set_cursor(30,15);
 418:	6f e0       	ldi	r22, 0x0F	; 15
 41a:	8e e1       	ldi	r24, 0x1E	; 30
 41c:	0e 94 a9 05 	call	0xb52	; 0xb52 <nokia_lcd_set_cursor>
	nokia_lcd_write_string("1",4);
 420:	64 e0       	ldi	r22, 0x04	; 4
 422:	80 e5       	ldi	r24, 0x50	; 80
 424:	91 e0       	ldi	r25, 0x01	; 1
 426:	0e 94 98 05 	call	0xb30	; 0xb30 <nokia_lcd_write_string>
	nokia_lcd_render();
 42a:	0e 94 ae 05 	call	0xb5c	; 0xb5c <nokia_lcd_render>
 42e:	2f ef       	ldi	r18, 0xFF	; 255
 430:	83 ed       	ldi	r24, 0xD3	; 211
 432:	90 e3       	ldi	r25, 0x30	; 48
 434:	21 50       	subi	r18, 0x01	; 1
 436:	80 40       	sbci	r24, 0x00	; 0
 438:	90 40       	sbci	r25, 0x00	; 0
 43a:	e1 f7       	brne	.-8      	; 0x434 <__LOCK_REGION_LENGTH__+0x34>
 43c:	00 c0       	rjmp	.+0      	; 0x43e <__LOCK_REGION_LENGTH__+0x3e>
 43e:	00 00       	nop
	_delay_ms(1000);
	
	
	nokia_lcd_clear(); //Limpa o LCD
 440:	0e 94 d0 04 	call	0x9a0	; 0x9a0 <nokia_lcd_clear>
	nokia_lcd_set_cursor(15,15);
 444:	6f e0       	ldi	r22, 0x0F	; 15
 446:	8f e0       	ldi	r24, 0x0F	; 15
 448:	0e 94 a9 05 	call	0xb52	; 0xb52 <nokia_lcd_set_cursor>
	nokia_lcd_write_string("GO",4);
 44c:	64 e0       	ldi	r22, 0x04	; 4
 44e:	89 e4       	ldi	r24, 0x49	; 73
 450:	91 e0       	ldi	r25, 0x01	; 1
 452:	0e 94 98 05 	call	0xb30	; 0xb30 <nokia_lcd_write_string>
	nokia_lcd_render();
 456:	0e 94 ae 05 	call	0xb5c	; 0xb5c <nokia_lcd_render>
 45a:	2f ef       	ldi	r18, 0xFF	; 255
 45c:	83 ed       	ldi	r24, 0xD3	; 211
 45e:	90 e3       	ldi	r25, 0x30	; 48
 460:	21 50       	subi	r18, 0x01	; 1
 462:	80 40       	sbci	r24, 0x00	; 0
 464:	90 40       	sbci	r25, 0x00	; 0
 466:	e1 f7       	brne	.-8      	; 0x460 <__LOCK_REGION_LENGTH__+0x60>
 468:	00 c0       	rjmp	.+0      	; 0x46a <__LOCK_REGION_LENGTH__+0x6a>
 46a:	00 00       	nop
	_delay_ms(1000);
	
	return 2;
	
}
 46c:	82 e0       	ldi	r24, 0x02	; 2
 46e:	08 95       	ret

00000470 <game_running_display_game_over>:
uint8_t game_running_display_game_over(){
	// Tela que mostra o fim do jogo
	
	nokia_lcd_clear(); //Limpa o LCD
 470:	0e 94 d0 04 	call	0x9a0	; 0x9a0 <nokia_lcd_clear>
	nokia_lcd_set_cursor(20,0);
 474:	60 e0       	ldi	r22, 0x00	; 0
 476:	84 e1       	ldi	r24, 0x14	; 20
 478:	0e 94 a9 05 	call	0xb52	; 0xb52 <nokia_lcd_set_cursor>
	nokia_lcd_write_string("GAME",2); //Escreve um texto do tamanho 2
 47c:	62 e0       	ldi	r22, 0x02	; 2
 47e:	82 e5       	ldi	r24, 0x52	; 82
 480:	91 e0       	ldi	r25, 0x01	; 1
 482:	0e 94 98 05 	call	0xb30	; 0xb30 <nokia_lcd_write_string>
	nokia_lcd_set_cursor(20,25);
 486:	69 e1       	ldi	r22, 0x19	; 25
 488:	84 e1       	ldi	r24, 0x14	; 20
 48a:	0e 94 a9 05 	call	0xb52	; 0xb52 <nokia_lcd_set_cursor>
	nokia_lcd_write_string("OVER",2); //Escreve um texto do tamanho 2
 48e:	62 e0       	ldi	r22, 0x02	; 2
 490:	87 e5       	ldi	r24, 0x57	; 87
 492:	91 e0       	ldi	r25, 0x01	; 1
 494:	0e 94 98 05 	call	0xb30	; 0xb30 <nokia_lcd_write_string>
	nokia_lcd_render();
 498:	0e 94 ae 05 	call	0xb5c	; 0xb5c <nokia_lcd_render>
	set_bit(PORTC,BUZZ);
 49c:	88 b1       	in	r24, 0x08	; 8
 49e:	80 64       	ori	r24, 0x40	; 64
 4a0:	88 b9       	out	0x08, r24	; 8
 4a2:	2f ef       	ldi	r18, 0xFF	; 255
 4a4:	87 e8       	ldi	r24, 0x87	; 135
 4a6:	93 e1       	ldi	r25, 0x13	; 19
 4a8:	21 50       	subi	r18, 0x01	; 1
 4aa:	80 40       	sbci	r24, 0x00	; 0
 4ac:	90 40       	sbci	r25, 0x00	; 0
 4ae:	e1 f7       	brne	.-8      	; 0x4a8 <game_running_display_game_over+0x38>
 4b0:	00 c0       	rjmp	.+0      	; 0x4b2 <game_running_display_game_over+0x42>
 4b2:	00 00       	nop
	_delay_ms(400);
	clr_bit(PORTC,BUZZ);
 4b4:	88 b1       	in	r24, 0x08	; 8
 4b6:	8f 7b       	andi	r24, 0xBF	; 191
 4b8:	88 b9       	out	0x08, r24	; 8
 4ba:	2f ef       	ldi	r18, 0xFF	; 255
 4bc:	83 e2       	ldi	r24, 0x23	; 35
 4be:	94 ef       	ldi	r25, 0xF4	; 244
 4c0:	21 50       	subi	r18, 0x01	; 1
 4c2:	80 40       	sbci	r24, 0x00	; 0
 4c4:	90 40       	sbci	r25, 0x00	; 0
 4c6:	e1 f7       	brne	.-8      	; 0x4c0 <game_running_display_game_over+0x50>
 4c8:	00 c0       	rjmp	.+0      	; 0x4ca <game_running_display_game_over+0x5a>
 4ca:	00 00       	nop
	_delay_ms(5000);
	return 0;
}
 4cc:	80 e0       	ldi	r24, 0x00	; 0
 4ce:	08 95       	ret

000004d0 <game_running_display_win>:
uint8_t game_running_display_win(){
	// Tela que mostra o fim do jogo
	
	nokia_lcd_clear(); //Limpa o LCD
 4d0:	0e 94 d0 04 	call	0x9a0	; 0x9a0 <nokia_lcd_clear>
	nokia_lcd_set_cursor(20,0);
 4d4:	60 e0       	ldi	r22, 0x00	; 0
 4d6:	84 e1       	ldi	r24, 0x14	; 20
 4d8:	0e 94 a9 05 	call	0xb52	; 0xb52 <nokia_lcd_set_cursor>
	nokia_lcd_write_string("YOU",2); //Escreve um texto do tamanho 2
 4dc:	62 e0       	ldi	r22, 0x02	; 2
 4de:	8c e5       	ldi	r24, 0x5C	; 92
 4e0:	91 e0       	ldi	r25, 0x01	; 1
 4e2:	0e 94 98 05 	call	0xb30	; 0xb30 <nokia_lcd_write_string>
	nokia_lcd_set_cursor(20,25);
 4e6:	69 e1       	ldi	r22, 0x19	; 25
 4e8:	84 e1       	ldi	r24, 0x14	; 20
 4ea:	0e 94 a9 05 	call	0xb52	; 0xb52 <nokia_lcd_set_cursor>
	nokia_lcd_write_string("WIN",2); //Escreve um texto do tamanho 2
 4ee:	62 e0       	ldi	r22, 0x02	; 2
 4f0:	80 e6       	ldi	r24, 0x60	; 96
 4f2:	91 e0       	ldi	r25, 0x01	; 1
 4f4:	0e 94 98 05 	call	0xb30	; 0xb30 <nokia_lcd_write_string>
	nokia_lcd_render();
 4f8:	0e 94 ae 05 	call	0xb5c	; 0xb5c <nokia_lcd_render>
	set_bit(PORTC,BUZZ);
 4fc:	88 b1       	in	r24, 0x08	; 8
 4fe:	80 64       	ori	r24, 0x40	; 64
 500:	88 b9       	out	0x08, r24	; 8
 502:	2f ef       	ldi	r18, 0xFF	; 255
 504:	87 e8       	ldi	r24, 0x87	; 135
 506:	93 e1       	ldi	r25, 0x13	; 19
 508:	21 50       	subi	r18, 0x01	; 1
 50a:	80 40       	sbci	r24, 0x00	; 0
 50c:	90 40       	sbci	r25, 0x00	; 0
 50e:	e1 f7       	brne	.-8      	; 0x508 <game_running_display_win+0x38>
 510:	00 c0       	rjmp	.+0      	; 0x512 <game_running_display_win+0x42>
 512:	00 00       	nop
	_delay_ms(400);
	clr_bit(PORTC,BUZZ);
 514:	88 b1       	in	r24, 0x08	; 8
 516:	8f 7b       	andi	r24, 0xBF	; 191
 518:	88 b9       	out	0x08, r24	; 8
 51a:	2f ef       	ldi	r18, 0xFF	; 255
 51c:	8b e7       	ldi	r24, 0x7B	; 123
 51e:	92 e9       	ldi	r25, 0x92	; 146
 520:	21 50       	subi	r18, 0x01	; 1
 522:	80 40       	sbci	r24, 0x00	; 0
 524:	90 40       	sbci	r25, 0x00	; 0
 526:	e1 f7       	brne	.-8      	; 0x520 <game_running_display_win+0x50>
 528:	00 c0       	rjmp	.+0      	; 0x52a <game_running_display_win+0x5a>
 52a:	00 00       	nop
	_delay_ms(3000);
	return 0;
}
 52c:	80 e0       	ldi	r24, 0x00	; 0
 52e:	08 95       	ret

00000530 <USART_Transmit>:
}
unsigned char USART_Receive(void)
{
	while(!(UCSR0A & (1<<RXC0))); //Espera o dado ser recebido
	return UDR0; //Le o dado recebido e retorna
}
 530:	90 91 c0 00 	lds	r25, 0x00C0	; 0x8000c0 <__DATA_REGION_ORIGIN__+0x60>
 534:	95 ff       	sbrs	r25, 5
 536:	fc cf       	rjmp	.-8      	; 0x530 <USART_Transmit>
 538:	80 93 c6 00 	sts	0x00C6, r24	; 0x8000c6 <__DATA_REGION_ORIGIN__+0x66>
 53c:	08 95       	ret

0000053e <USART_Init>:
 53e:	90 93 c5 00 	sts	0x00C5, r25	; 0x8000c5 <__DATA_REGION_ORIGIN__+0x65>
 542:	80 93 c4 00 	sts	0x00C4, r24	; 0x8000c4 <__DATA_REGION_ORIGIN__+0x64>
 546:	88 e9       	ldi	r24, 0x98	; 152
 548:	80 93 c1 00 	sts	0x00C1, r24	; 0x8000c1 <__DATA_REGION_ORIGIN__+0x61>
 54c:	8e e0       	ldi	r24, 0x0E	; 14
 54e:	80 93 c2 00 	sts	0x00C2, r24	; 0x8000c2 <__DATA_REGION_ORIGIN__+0x62>
 552:	8f ef       	ldi	r24, 0xFF	; 255
 554:	87 b9       	out	0x07, r24	; 7
 556:	08 95       	ret

00000558 <__vector_1>:

ISR(INT0_vect) //Interrup√ß√£o no pino PD2 respons√°vel por decrementar a contagem de acordo com o n√≠vel 
{
 558:	1f 92       	push	r1
 55a:	0f 92       	push	r0
 55c:	0f b6       	in	r0, 0x3f	; 63
 55e:	0f 92       	push	r0
 560:	11 24       	eor	r1, r1
 562:	2f 93       	push	r18
 564:	8f 93       	push	r24
 566:	9f 93       	push	r25
if(start_count==2){ // S√≥ interfere no funcionamento do brinquedo ap√≥s o funcionamento 
 568:	80 91 64 01 	lds	r24, 0x0164	; 0x800164 <__data_end>
 56c:	82 30       	cpi	r24, 0x02	; 2
 56e:	31 f5       	brne	.+76     	; 0x5bc <__vector_1+0x64>
set_bit(PORTC,BUZZ); 
 570:	88 b1       	in	r24, 0x08	; 8
 572:	80 64       	ori	r24, 0x40	; 64
 574:	88 b9       	out	0x08, r24	; 8
 576:	2f ef       	ldi	r18, 0xFF	; 255
 578:	81 ee       	ldi	r24, 0xE1	; 225
 57a:	94 e0       	ldi	r25, 0x04	; 4
 57c:	21 50       	subi	r18, 0x01	; 1
 57e:	80 40       	sbci	r24, 0x00	; 0
 580:	90 40       	sbci	r25, 0x00	; 0
 582:	e1 f7       	brne	.-8      	; 0x57c <__vector_1+0x24>
 584:	00 c0       	rjmp	.+0      	; 0x586 <__vector_1+0x2e>
 586:	00 00       	nop
_delay_ms(100); // Set bit e Clear bit com gerando um pulso de 100ms no pino PC6 conectado na base do transistor, que ativa o buzzer 
clr_bit(PORTC,BUZZ);
 588:	88 b1       	in	r24, 0x08	; 8
 58a:	8f 7b       	andi	r24, 0xBF	; 191
 58c:	88 b9       	out	0x08, r24	; 8
// Seleciona o nivel de dificuldade e decrementa no contador
	if(dificuldade==1){
 58e:	80 91 67 01 	lds	r24, 0x0167	; 0x800167 <dificuldade>
 592:	81 30       	cpi	r24, 0x01	; 1
 594:	29 f4       	brne	.+10     	; 0x5a0 <__vector_1+0x48>
		contador-=5;
 596:	90 91 00 01 	lds	r25, 0x0100	; 0x800100 <__data_start>
 59a:	95 50       	subi	r25, 0x05	; 5
 59c:	90 93 00 01 	sts	0x0100, r25	; 0x800100 <__data_start>
	}
	if(dificuldade==2){
 5a0:	82 30       	cpi	r24, 0x02	; 2
 5a2:	29 f4       	brne	.+10     	; 0x5ae <__vector_1+0x56>
		contador-=10;
 5a4:	90 91 00 01 	lds	r25, 0x0100	; 0x800100 <__data_start>
 5a8:	9a 50       	subi	r25, 0x0A	; 10
 5aa:	90 93 00 01 	sts	0x0100, r25	; 0x800100 <__data_start>
	}
	if(dificuldade==3){
 5ae:	83 30       	cpi	r24, 0x03	; 3
 5b0:	29 f4       	brne	.+10     	; 0x5bc <__vector_1+0x64>
		contador-=15;
 5b2:	80 91 00 01 	lds	r24, 0x0100	; 0x800100 <__data_start>
 5b6:	8f 50       	subi	r24, 0x0F	; 15
 5b8:	80 93 00 01 	sts	0x0100, r24	; 0x800100 <__data_start>
	}
}

}
 5bc:	9f 91       	pop	r25
 5be:	8f 91       	pop	r24
 5c0:	2f 91       	pop	r18
 5c2:	0f 90       	pop	r0
 5c4:	0f be       	out	0x3f, r0	; 63
 5c6:	0f 90       	pop	r0
 5c8:	1f 90       	pop	r1
 5ca:	18 95       	reti

000005cc <__vector_2>:
	ISR(INT1_vect) // Inicio do jogo
	{
 5cc:	1f 92       	push	r1
 5ce:	0f 92       	push	r0
 5d0:	0f b6       	in	r0, 0x3f	; 63
 5d2:	0f 92       	push	r0
 5d4:	11 24       	eor	r1, r1
 5d6:	2f 93       	push	r18
 5d8:	8f 93       	push	r24
 5da:	9f 93       	push	r25
		if(start_end==0)
 5dc:	80 91 68 01 	lds	r24, 0x0168	; 0x800168 <start_end>
 5e0:	81 11       	cpse	r24, r1
 5e2:	03 c0       	rjmp	.+6      	; 0x5ea <__vector_2+0x1e>
		start_end=1;
 5e4:	81 e0       	ldi	r24, 0x01	; 1
 5e6:	80 93 68 01 	sts	0x0168, r24	; 0x800168 <start_end>
 5ea:	2f ef       	ldi	r18, 0xFF	; 255
 5ec:	80 e7       	ldi	r24, 0x70	; 112
 5ee:	92 e0       	ldi	r25, 0x02	; 2
 5f0:	21 50       	subi	r18, 0x01	; 1
 5f2:	80 40       	sbci	r24, 0x00	; 0
 5f4:	90 40       	sbci	r25, 0x00	; 0
 5f6:	e1 f7       	brne	.-8      	; 0x5f0 <__vector_2+0x24>
 5f8:	00 c0       	rjmp	.+0      	; 0x5fa <__vector_2+0x2e>
 5fa:	00 00       	nop
		_delay_ms(50);
	}
 5fc:	9f 91       	pop	r25
 5fe:	8f 91       	pop	r24
 600:	2f 91       	pop	r18
 602:	0f 90       	pop	r0
 604:	0f be       	out	0x3f, r0	; 63
 606:	0f 90       	pop	r0
 608:	1f 90       	pop	r1
 60a:	18 95       	reti

0000060c <__vector_14>:

	ISR(TIMER0_COMPA_vect){
 60c:	1f 92       	push	r1
 60e:	0f 92       	push	r0
 610:	0f b6       	in	r0, 0x3f	; 63
 612:	0f 92       	push	r0
 614:	11 24       	eor	r1, r1
 616:	2f 93       	push	r18
 618:	8f 93       	push	r24
 61a:	9f 93       	push	r25
		
		if(start_count==2){ // Ativa a contagem 
 61c:	80 91 64 01 	lds	r24, 0x0164	; 0x800164 <__data_end>
 620:	82 30       	cpi	r24, 0x02	; 2
 622:	19 f5       	brne	.+70     	; 0x66a <__vector_14+0x5e>
			cont++;
 624:	80 91 65 01 	lds	r24, 0x0165	; 0x800165 <cont>
 628:	90 91 66 01 	lds	r25, 0x0166	; 0x800166 <cont+0x1>
 62c:	01 96       	adiw	r24, 0x01	; 1
 62e:	90 93 66 01 	sts	0x0166, r25	; 0x800166 <cont+0x1>
 632:	80 93 65 01 	sts	0x0165, r24	; 0x800165 <cont>
			if(cont==1000){ // Conta 1000ms= 1s 
 636:	88 3e       	cpi	r24, 0xE8	; 232
 638:	93 40       	sbci	r25, 0x03	; 3
 63a:	b9 f4       	brne	.+46     	; 0x66a <__vector_14+0x5e>
				contador--;
 63c:	80 91 00 01 	lds	r24, 0x0100	; 0x800100 <__data_start>
 640:	81 50       	subi	r24, 0x01	; 1
 642:	80 93 00 01 	sts	0x0100, r24	; 0x800100 <__data_start>
				cont=0;
 646:	10 92 66 01 	sts	0x0166, r1	; 0x800166 <cont+0x1>
 64a:	10 92 65 01 	sts	0x0165, r1	; 0x800165 <cont>
				if(contador==0){ // Game Over 
 64e:	81 11       	cpse	r24, r1
 650:	0c c0       	rjmp	.+24     	; 0x66a <__vector_14+0x5e>
					start_count=3;
 652:	83 e0       	ldi	r24, 0x03	; 3
 654:	80 93 64 01 	sts	0x0164, r24	; 0x800164 <__data_end>
					contador=99;
 658:	83 e6       	ldi	r24, 0x63	; 99
 65a:	80 93 00 01 	sts	0x0100, r24	; 0x800100 <__data_start>
	#else
		//round up by default
		__ticks_dc = (uint32_t)(ceil(fabs(__tmp)));
	#endif

	__builtin_avr_delay_cycles(__ticks_dc);
 65e:	8f e9       	ldi	r24, 0x9F	; 159
 660:	9f e0       	ldi	r25, 0x0F	; 15
 662:	01 97       	sbiw	r24, 0x01	; 1
 664:	f1 f7       	brne	.-4      	; 0x662 <__vector_14+0x56>
 666:	00 c0       	rjmp	.+0      	; 0x668 <__vector_14+0x5c>
 668:	00 00       	nop
					_delay_us(1000);
				}
			}
		}
	}
 66a:	9f 91       	pop	r25
 66c:	8f 91       	pop	r24
 66e:	2f 91       	pop	r18
 670:	0f 90       	pop	r0
 672:	0f be       	out	0x3f, r0	; 63
 674:	0f 90       	pop	r0
 676:	1f 90       	pop	r1
 678:	18 95       	reti

0000067a <__vector_18>:
	ISR(USART_RX_vect)
	{
 67a:	1f 92       	push	r1
 67c:	0f 92       	push	r0
 67e:	0f b6       	in	r0, 0x3f	; 63
 680:	0f 92       	push	r0
 682:	11 24       	eor	r1, r1
 684:	2f 93       	push	r18
 686:	3f 93       	push	r19
 688:	4f 93       	push	r20
 68a:	5f 93       	push	r21
 68c:	6f 93       	push	r22
 68e:	7f 93       	push	r23
 690:	8f 93       	push	r24
 692:	9f 93       	push	r25
 694:	af 93       	push	r26
 696:	bf 93       	push	r27
 698:	ef 93       	push	r30
 69a:	ff 93       	push	r31
		// Recebe o char via usart 
		char recebido;
		recebido = UDR0;
 69c:	80 91 c6 00 	lds	r24, 0x00C6	; 0x8000c6 <__DATA_REGION_ORIGIN__+0x66>
		if(recebido=='1'){
 6a0:	81 33       	cpi	r24, 0x31	; 49
 6a2:	19 f4       	brne	.+6      	; 0x6aa <__vector_18+0x30>
			dificuldade=1;
 6a4:	91 e0       	ldi	r25, 0x01	; 1
 6a6:	90 93 67 01 	sts	0x0167, r25	; 0x800167 <dificuldade>
		}
		if(recebido=='2'){
 6aa:	82 33       	cpi	r24, 0x32	; 50
 6ac:	19 f4       	brne	.+6      	; 0x6b4 <__vector_18+0x3a>
			dificuldade=2;
 6ae:	92 e0       	ldi	r25, 0x02	; 2
 6b0:	90 93 67 01 	sts	0x0167, r25	; 0x800167 <dificuldade>
		}
		if(recebido=='3'){
 6b4:	83 33       	cpi	r24, 0x33	; 51
 6b6:	19 f4       	brne	.+6      	; 0x6be <__vector_18+0x44>
			dificuldade =3;
 6b8:	93 e0       	ldi	r25, 0x03	; 3
 6ba:	90 93 67 01 	sts	0x0167, r25	; 0x800167 <dificuldade>
		}
		USART_Transmit(recebido);
 6be:	0e 94 98 02 	call	0x530	; 0x530 <USART_Transmit>
		start_count=1;
 6c2:	81 e0       	ldi	r24, 0x01	; 1
 6c4:	80 93 64 01 	sts	0x0164, r24	; 0x800164 <__data_end>
	}
 6c8:	ff 91       	pop	r31
 6ca:	ef 91       	pop	r30
 6cc:	bf 91       	pop	r27
 6ce:	af 91       	pop	r26
 6d0:	9f 91       	pop	r25
 6d2:	8f 91       	pop	r24
 6d4:	7f 91       	pop	r23
 6d6:	6f 91       	pop	r22
 6d8:	5f 91       	pop	r21
 6da:	4f 91       	pop	r20
 6dc:	3f 91       	pop	r19
 6de:	2f 91       	pop	r18
 6e0:	0f 90       	pop	r0
 6e2:	0f be       	out	0x3f, r0	; 63
 6e4:	0f 90       	pop	r0
 6e6:	1f 90       	pop	r1
 6e8:	18 95       	reti

000006ea <__vector_10>:
	ISR(TIMER1_CAPT_vect) //interrup√ß√£o por captura do valor do TCNT1- Sensor Ultrassom 
	{
 6ea:	1f 92       	push	r1
 6ec:	0f 92       	push	r0
 6ee:	0f b6       	in	r0, 0x3f	; 63
 6f0:	0f 92       	push	r0
 6f2:	11 24       	eor	r1, r1
 6f4:	2f 93       	push	r18
 6f6:	3f 93       	push	r19
 6f8:	6f 93       	push	r22
 6fa:	7f 93       	push	r23
 6fc:	8f 93       	push	r24
 6fe:	9f 93       	push	r25
 700:	af 93       	push	r26
 702:	bf 93       	push	r27
 704:	ef 93       	push	r30
 706:	ff 93       	push	r31
		cpl_bit(TCCR1B,ICES1); //troca a borda de captura do sinal
 708:	e1 e8       	ldi	r30, 0x81	; 129
 70a:	f0 e0       	ldi	r31, 0x00	; 0
 70c:	90 81       	ld	r25, Z
 70e:	80 e4       	ldi	r24, 0x40	; 64
 710:	89 27       	eor	r24, r25
 712:	80 83       	st	Z, r24
		if(!tst_bit(TCCR1B,ICES1)){
 714:	80 81       	ld	r24, Z
 716:	86 fd       	sbrc	r24, 6
 718:	09 c0       	rjmp	.+18     	; 0x72c <__vector_10+0x42>
			Inicio_Sinal = ICR1;
 71a:	80 91 86 00 	lds	r24, 0x0086	; 0x800086 <__DATA_REGION_ORIGIN__+0x26>
 71e:	90 91 87 00 	lds	r25, 0x0087	; 0x800087 <__DATA_REGION_ORIGIN__+0x27>
 722:	90 93 6a 03 	sts	0x036A, r25	; 0x80036a <Inicio_Sinal+0x1>
 726:	80 93 69 03 	sts	0x0369, r24	; 0x800369 <Inicio_Sinal>
 72a:	18 c0       	rjmp	.+48     	; 0x75c <__vector_10+0x72>
		}
		else {//l√™ o valor de contagem do TC1 na borda de descida do sinal
			Distancia = (ICR1 - Inicio_Sinal)/58;// C√°lculo da DIst√¢ncia
 72c:	20 91 86 00 	lds	r18, 0x0086	; 0x800086 <__DATA_REGION_ORIGIN__+0x26>
 730:	30 91 87 00 	lds	r19, 0x0087	; 0x800087 <__DATA_REGION_ORIGIN__+0x27>
 734:	80 91 69 03 	lds	r24, 0x0369	; 0x800369 <Inicio_Sinal>
 738:	90 91 6a 03 	lds	r25, 0x036A	; 0x80036a <Inicio_Sinal+0x1>
 73c:	28 1b       	sub	r18, r24
 73e:	39 0b       	sbc	r19, r25
 740:	af e9       	ldi	r26, 0x9F	; 159
 742:	b6 e4       	ldi	r27, 0x46	; 70
 744:	0e 94 d3 05 	call	0xba6	; 0xba6 <__umulhisi3>
 748:	92 95       	swap	r25
 74a:	82 95       	swap	r24
 74c:	8f 70       	andi	r24, 0x0F	; 15
 74e:	89 27       	eor	r24, r25
 750:	9f 70       	andi	r25, 0x0F	; 15
 752:	89 27       	eor	r24, r25
 754:	90 93 68 03 	sts	0x0368, r25	; 0x800368 <Distancia+0x1>
 758:	80 93 67 03 	sts	0x0367, r24	; 0x800367 <Distancia>
		}
	}
 75c:	ff 91       	pop	r31
 75e:	ef 91       	pop	r30
 760:	bf 91       	pop	r27
 762:	af 91       	pop	r26
 764:	9f 91       	pop	r25
 766:	8f 91       	pop	r24
 768:	7f 91       	pop	r23
 76a:	6f 91       	pop	r22
 76c:	3f 91       	pop	r19
 76e:	2f 91       	pop	r18
 770:	0f 90       	pop	r0
 772:	0f be       	out	0x3f, r0	; 63
 774:	0f 90       	pop	r0
 776:	1f 90       	pop	r1
 778:	18 95       	reti

0000077a <main>:
	int main(void)
	{
	USART_Init(MYUBRR);
 77a:	87 e6       	ldi	r24, 0x67	; 103
 77c:	90 e0       	ldi	r25, 0x00	; 0
 77e:	0e 94 9f 02 	call	0x53e	; 0x53e <USART_Init>
	
	// COnfigura√ß√µes porta D 
	DDRD = 0x00;
 782:	1a b8       	out	0x0a, r1	; 10
	PORTD = 0xff;
 784:	8f ef       	ldi	r24, 0xFF	; 255
 786:	8b b9       	out	0x0b, r24	; 11
	DDRD = (1<<5);
 788:	20 e2       	ldi	r18, 0x20	; 32
 78a:	2a b9       	out	0x0a, r18	; 10
	
// Configura√ß√µes porta C
	DDRC |= (1<<BUZZ);
 78c:	87 b1       	in	r24, 0x07	; 7
 78e:	80 64       	ori	r24, 0x40	; 64
 790:	87 b9       	out	0x07, r24	; 7
	
// COnfigura√ß√µes porta B
	DDRB = 0b00000010;//somente pino de disparo como sa√≠da (PB1), captura no PB0 (ICP1)
 792:	92 e0       	ldi	r25, 0x02	; 2
 794:	94 b9       	out	0x04, r25	; 4
	PORTB =0b11111101;
 796:	8d ef       	ldi	r24, 0xFD	; 253
 798:	85 b9       	out	0x05, r24	; 5
	
	//Configura√ß√£o para o sensor Ultrassom 
	
	TCCR1B = (1<<ICES1)|(1<<CS11); //TC1 com prescaler = 8, captura na borda de subida
 79a:	82 e4       	ldi	r24, 0x42	; 66
 79c:	80 93 81 00 	sts	0x0081, r24	; 0x800081 <__DATA_REGION_ORIGIN__+0x21>
	TIMSK1 = 1<<ICIE1; //habilita a interrup√ß√£o por captura
 7a0:	20 93 6f 00 	sts	0x006F, r18	; 0x80006f <__DATA_REGION_ORIGIN__+0xf>
	
	////////////////////////////////////////////////////////////////////
	
	EICRA = 0b00000011;
 7a4:	83 e0       	ldi	r24, 0x03	; 3
 7a6:	80 93 69 00 	sts	0x0069, r24	; 0x800069 <__DATA_REGION_ORIGIN__+0x9>
	EIMSK = 0b00000011;
 7aa:	8d bb       	out	0x1d, r24	; 29
	sei();
 7ac:	78 94       	sei
	

	// Timer
	TCCR0A = 0b10100010;
 7ae:	22 ea       	ldi	r18, 0xA2	; 162
 7b0:	24 bd       	out	0x24, r18	; 36
	TCCR0B = 0b00000011; // TC0 com prescaler=64
 7b2:	85 bd       	out	0x25, r24	; 37
	OCR0A = 249; // ajusta o comparador do TC0 contar at√© 249
 7b4:	89 ef       	ldi	r24, 0xF9	; 249
 7b6:	87 bd       	out	0x27, r24	; 39
	OCR0B=200; // Duty do PWM no pino PD5
 7b8:	88 ec       	ldi	r24, 0xC8	; 200
 7ba:	88 bd       	out	0x28, r24	; 40
	TIMSK0 = 0b00000010; // Habilita a interrupcao na igualdade com OCR0A, sendo a cada 1ms = (64*(249+1)/16Mhz
 7bc:	90 93 6e 00 	sts	0x006E, r25	; 0x80006e <__DATA_REGION_ORIGIN__+0xe>

	
	nokia_lcd_init(); //Inicia o LCD
 7c0:	0e 94 78 04 	call	0x8f0	; 0x8f0 <nokia_lcd_init>
	nokia_lcd_clear(); //Limpa o LCD
 7c4:	0e 94 d0 04 	call	0x9a0	; 0x9a0 <nokia_lcd_clear>
	nokia_lcd_render();
 7c8:	0e 94 ae 05 	call	0xb5c	; 0xb5c <nokia_lcd_render>
		
		
		while (1)
		{
			//pulso de disparo
			set_bit(PORTB,DISPARO);
 7cc:	85 b1       	in	r24, 0x05	; 5
 7ce:	82 60       	ori	r24, 0x02	; 2
 7d0:	85 b9       	out	0x05, r24	; 5
 7d2:	25 e3       	ldi	r18, 0x35	; 53
 7d4:	2a 95       	dec	r18
 7d6:	f1 f7       	brne	.-4      	; 0x7d4 <main+0x5a>
 7d8:	00 00       	nop
			_delay_us(10);
			clr_bit(PORTB,DISPARO);
 7da:	85 b1       	in	r24, 0x05	; 5
 7dc:	8d 7f       	andi	r24, 0xFD	; 253
 7de:	85 b9       	out	0x05, r24	; 5
			
			clr_bit(PORTC,BUZZ); // Deixa como padr√£o o nivel l√≥gico do pino PD6
 7e0:	88 b1       	in	r24, 0x08	; 8
 7e2:	8f 7b       	andi	r24, 0xBF	; 191
 7e4:	88 b9       	out	0x08, r24	; 8
			
			switch (start_count)
 7e6:	80 91 64 01 	lds	r24, 0x0164	; 0x800164 <__data_end>
 7ea:	82 30       	cpi	r24, 0x02	; 2
 7ec:	e1 f0       	breq	.+56     	; 0x826 <main+0xac>
 7ee:	28 f4       	brcc	.+10     	; 0x7fa <main+0x80>
 7f0:	88 23       	and	r24, r24
 7f2:	41 f0       	breq	.+16     	; 0x804 <main+0x8a>
 7f4:	81 30       	cpi	r24, 0x01	; 1
 7f6:	91 f0       	breq	.+36     	; 0x81c <main+0xa2>
 7f8:	e9 cf       	rjmp	.-46     	; 0x7cc <main+0x52>
 7fa:	83 30       	cpi	r24, 0x03	; 3
 7fc:	31 f1       	breq	.+76     	; 0x84a <main+0xd0>
 7fe:	84 30       	cpi	r24, 0x04	; 4
 800:	91 f1       	breq	.+100    	; 0x866 <main+0xec>
 802:	e4 cf       	rjmp	.-56     	; 0x7cc <main+0x52>
			{
				
				case 0:
				if(start_end==0) // Tela de inicio
 804:	80 91 68 01 	lds	r24, 0x0168	; 0x800168 <start_end>
 808:	81 11       	cpse	r24, r1
 80a:	03 c0       	rjmp	.+6      	; 0x812 <main+0x98>
				{
					game_running_display_init();
 80c:	0e 94 64 01 	call	0x2c8	; 0x2c8 <game_running_display_init>
 810:	dd cf       	rjmp	.-70     	; 0x7cc <main+0x52>
				}
				else if(start_end==1) // Tela de configura√ß√£o
 812:	81 30       	cpi	r24, 0x01	; 1
 814:	d9 f6       	brne	.-74     	; 0x7cc <main+0x52>
				{
					game_running_display_config();
 816:	0e 94 8d 01 	call	0x31a	; 0x31a <game_running_display_config>
 81a:	d8 cf       	rjmp	.-80     	; 0x7cc <main+0x52>
				}
				break;
				
				case 1: // Contagem √© sinalizada que ir√° come√ßar- Tela de transi√ß√£o 
				start_count=game_running_display_transit_start(); // Retorna 2, obrigado a no proximo la√ßo entrar na condicao seguinte
 81c:	0e 94 de 01 	call	0x3bc	; 0x3bc <game_running_display_transit_start>
 820:	80 93 64 01 	sts	0x0164, r24	; 0x800164 <__data_end>
				break;
 824:	d3 cf       	rjmp	.-90     	; 0x7cc <main+0x52>
				
				case 2: // Permanece por aqui at√© que o contador=0 (jogador perdeu a partida) ou que o Sensor Ultrassom acuse que o jogador ganhou o jogo, condicao imposta no timer
				game_running_display_countdwown(contador);  // Retorna 2, obrigado a no proximo laco entrar na condicao seguinte
 826:	80 91 00 01 	lds	r24, 0x0100	; 0x800100 <__data_start>
 82a:	0e 94 b6 01 	call	0x36c	; 0x36c <game_running_display_countdwown>
				if(Distancia<431){
 82e:	80 91 67 03 	lds	r24, 0x0367	; 0x800367 <Distancia>
 832:	90 91 68 03 	lds	r25, 0x0368	; 0x800368 <Distancia+0x1>
 836:	8f 3a       	cpi	r24, 0xAF	; 175
 838:	21 e0       	ldi	r18, 0x01	; 1
 83a:	92 07       	cpc	r25, r18
 83c:	38 f6       	brcc	.-114    	; 0x7cc <main+0x52>
					if(Distancia<20 || Distancia==0){
 83e:	44 97       	sbiw	r24, 0x14	; 20
 840:	28 f6       	brcc	.-118    	; 0x7cc <main+0x52>
						start_count=4; // Vitoria do Jogador 
 842:	84 e0       	ldi	r24, 0x04	; 4
 844:	80 93 64 01 	sts	0x0164, r24	; 0x800164 <__data_end>
 848:	c1 cf       	rjmp	.-126    	; 0x7cc <main+0x52>
					}
				}
				break;
				case 3: // Game over 
				start_count=game_running_display_game_over(); // Retorna 0, obrigando a parar a contagem
 84a:	0e 94 38 02 	call	0x470	; 0x470 <game_running_display_game_over>
 84e:	80 93 64 01 	sts	0x0164, r24	; 0x800164 <__data_end>
				start_end=0; // Volta pra tela de inicio
 852:	10 92 68 01 	sts	0x0168, r1	; 0x800168 <start_end>
				contador=99;
 856:	83 e6       	ldi	r24, 0x63	; 99
 858:	80 93 00 01 	sts	0x0100, r24	; 0x800100 <__data_start>
				cont=0;
 85c:	10 92 66 01 	sts	0x0166, r1	; 0x800166 <cont+0x1>
 860:	10 92 65 01 	sts	0x0165, r1	; 0x800165 <cont>
				break;
 864:	b3 cf       	rjmp	.-154    	; 0x7cc <main+0x52>
				case 4: // You win 
				start_count=game_running_display_win(); // Retorna 0, obrigando a parar a contagem
 866:	0e 94 68 02 	call	0x4d0	; 0x4d0 <game_running_display_win>
 86a:	80 93 64 01 	sts	0x0164, r24	; 0x800164 <__data_end>
				start_end=0; // Volta pra tela de inicio
 86e:	10 92 68 01 	sts	0x0168, r1	; 0x800168 <start_end>
				contador=99;
 872:	83 e6       	ldi	r24, 0x63	; 99
 874:	80 93 00 01 	sts	0x0100, r24	; 0x800100 <__data_start>
				cont=0;
 878:	10 92 66 01 	sts	0x0166, r1	; 0x800166 <cont+0x1>
 87c:	10 92 65 01 	sts	0x0165, r1	; 0x800165 <cont>
				break;
 880:	a5 cf       	rjmp	.-182    	; 0x7cc <main+0x52>

00000882 <write>:
		nokia_lcd.screen[i] = 0x00;
}

void nokia_lcd_power(uint8_t on)
{
	write_cmd(on ? 0x20 : 0x24);
 882:	98 b1       	in	r25, 0x08	; 8
 884:	9d 7f       	andi	r25, 0xFD	; 253
 886:	98 b9       	out	0x08, r25	; 8
 888:	66 23       	and	r22, r22
 88a:	29 f0       	breq	.+10     	; 0x896 <write+0x14>
 88c:	98 b1       	in	r25, 0x08	; 8
 88e:	98 60       	ori	r25, 0x08	; 8
 890:	98 b9       	out	0x08, r25	; 8
 892:	90 e0       	ldi	r25, 0x00	; 0
 894:	1f c0       	rjmp	.+62     	; 0x8d4 <write+0x52>
 896:	98 b1       	in	r25, 0x08	; 8
 898:	97 7f       	andi	r25, 0xF7	; 247
 89a:	98 b9       	out	0x08, r25	; 8
 89c:	fa cf       	rjmp	.-12     	; 0x892 <write+0x10>
 89e:	47 e0       	ldi	r20, 0x07	; 7
 8a0:	50 e0       	ldi	r21, 0x00	; 0
 8a2:	49 1b       	sub	r20, r25
 8a4:	51 09       	sbc	r21, r1
 8a6:	28 2f       	mov	r18, r24
 8a8:	30 e0       	ldi	r19, 0x00	; 0
 8aa:	02 c0       	rjmp	.+4      	; 0x8b0 <write+0x2e>
 8ac:	35 95       	asr	r19
 8ae:	27 95       	ror	r18
 8b0:	4a 95       	dec	r20
 8b2:	e2 f7       	brpl	.-8      	; 0x8ac <write+0x2a>
 8b4:	20 ff       	sbrs	r18, 0
 8b6:	04 c0       	rjmp	.+8      	; 0x8c0 <write+0x3e>
 8b8:	28 b1       	in	r18, 0x08	; 8
 8ba:	20 61       	ori	r18, 0x10	; 16
 8bc:	28 b9       	out	0x08, r18	; 8
 8be:	03 c0       	rjmp	.+6      	; 0x8c6 <write+0x44>
 8c0:	28 b1       	in	r18, 0x08	; 8
 8c2:	2f 7e       	andi	r18, 0xEF	; 239
 8c4:	28 b9       	out	0x08, r18	; 8
 8c6:	28 b1       	in	r18, 0x08	; 8
 8c8:	20 62       	ori	r18, 0x20	; 32
 8ca:	28 b9       	out	0x08, r18	; 8
 8cc:	28 b1       	in	r18, 0x08	; 8
 8ce:	2f 7d       	andi	r18, 0xDF	; 223
 8d0:	28 b9       	out	0x08, r18	; 8
 8d2:	9f 5f       	subi	r25, 0xFF	; 255
 8d4:	98 30       	cpi	r25, 0x08	; 8
 8d6:	18 f3       	brcs	.-58     	; 0x89e <write+0x1c>
 8d8:	88 b1       	in	r24, 0x08	; 8
 8da:	82 60       	ori	r24, 0x02	; 2
 8dc:	88 b9       	out	0x08, r24	; 8
 8de:	08 95       	ret

000008e0 <write_cmd>:
 8e0:	60 e0       	ldi	r22, 0x00	; 0
 8e2:	0e 94 41 04 	call	0x882	; 0x882 <write>
 8e6:	08 95       	ret

000008e8 <write_data>:
 8e8:	61 e0       	ldi	r22, 0x01	; 1
 8ea:	0e 94 41 04 	call	0x882	; 0x882 <write>
 8ee:	08 95       	ret

000008f0 <nokia_lcd_init>:
 8f0:	cf 93       	push	r28
 8f2:	df 93       	push	r29
 8f4:	87 b1       	in	r24, 0x07	; 7
 8f6:	82 60       	ori	r24, 0x02	; 2
 8f8:	87 b9       	out	0x07, r24	; 7
 8fa:	87 b1       	in	r24, 0x07	; 7
 8fc:	84 60       	ori	r24, 0x04	; 4
 8fe:	87 b9       	out	0x07, r24	; 7
 900:	87 b1       	in	r24, 0x07	; 7
 902:	88 60       	ori	r24, 0x08	; 8
 904:	87 b9       	out	0x07, r24	; 7
 906:	87 b1       	in	r24, 0x07	; 7
 908:	80 61       	ori	r24, 0x10	; 16
 90a:	87 b9       	out	0x07, r24	; 7
 90c:	87 b1       	in	r24, 0x07	; 7
 90e:	80 62       	ori	r24, 0x20	; 32
 910:	87 b9       	out	0x07, r24	; 7
 912:	88 b1       	in	r24, 0x08	; 8
 914:	84 60       	ori	r24, 0x04	; 4
 916:	88 b9       	out	0x08, r24	; 8
 918:	88 b1       	in	r24, 0x08	; 8
 91a:	82 60       	ori	r24, 0x02	; 2
 91c:	88 b9       	out	0x08, r24	; 8
 91e:	83 ec       	ldi	r24, 0xC3	; 195
 920:	99 e0       	ldi	r25, 0x09	; 9
 922:	01 97       	sbiw	r24, 0x01	; 1
 924:	f1 f7       	brne	.-4      	; 0x922 <__stack+0x23>
 926:	00 c0       	rjmp	.+0      	; 0x928 <__stack+0x29>
 928:	00 00       	nop
 92a:	88 b1       	in	r24, 0x08	; 8
 92c:	8b 7f       	andi	r24, 0xFB	; 251
 92e:	88 b9       	out	0x08, r24	; 8
 930:	8b e5       	ldi	r24, 0x5B	; 91
 932:	94 e4       	ldi	r25, 0x44	; 68
 934:	01 97       	sbiw	r24, 0x01	; 1
 936:	f1 f7       	brne	.-4      	; 0x934 <__stack+0x35>
 938:	00 c0       	rjmp	.+0      	; 0x93a <__stack+0x3b>
 93a:	00 00       	nop
 93c:	88 b1       	in	r24, 0x08	; 8
 93e:	84 60       	ori	r24, 0x04	; 4
 940:	88 b9       	out	0x08, r24	; 8
 942:	88 b1       	in	r24, 0x08	; 8
 944:	8d 7f       	andi	r24, 0xFD	; 253
 946:	88 b9       	out	0x08, r24	; 8
 948:	81 e2       	ldi	r24, 0x21	; 33
 94a:	0e 94 70 04 	call	0x8e0	; 0x8e0 <write_cmd>
 94e:	83 e1       	ldi	r24, 0x13	; 19
 950:	0e 94 70 04 	call	0x8e0	; 0x8e0 <write_cmd>
 954:	86 e0       	ldi	r24, 0x06	; 6
 956:	0e 94 70 04 	call	0x8e0	; 0x8e0 <write_cmd>
 95a:	82 ec       	ldi	r24, 0xC2	; 194
 95c:	0e 94 70 04 	call	0x8e0	; 0x8e0 <write_cmd>
 960:	80 e2       	ldi	r24, 0x20	; 32
 962:	0e 94 70 04 	call	0x8e0	; 0x8e0 <write_cmd>
 966:	89 e0       	ldi	r24, 0x09	; 9
 968:	0e 94 70 04 	call	0x8e0	; 0x8e0 <write_cmd>
 96c:	80 e8       	ldi	r24, 0x80	; 128
 96e:	0e 94 70 04 	call	0x8e0	; 0x8e0 <write_cmd>
 972:	80 e4       	ldi	r24, 0x40	; 64
 974:	0e 94 70 04 	call	0x8e0	; 0x8e0 <write_cmd>
 978:	c0 e0       	ldi	r28, 0x00	; 0
 97a:	d0 e0       	ldi	r29, 0x00	; 0
 97c:	04 c0       	rjmp	.+8      	; 0x986 <__stack+0x87>
 97e:	80 e0       	ldi	r24, 0x00	; 0
 980:	0e 94 74 04 	call	0x8e8	; 0x8e8 <write_data>
 984:	21 96       	adiw	r28, 0x01	; 1
 986:	c8 3f       	cpi	r28, 0xF8	; 248
 988:	91 e0       	ldi	r25, 0x01	; 1
 98a:	d9 07       	cpc	r29, r25
 98c:	c0 f3       	brcs	.-16     	; 0x97e <__stack+0x7f>
 98e:	88 e0       	ldi	r24, 0x08	; 8
 990:	0e 94 70 04 	call	0x8e0	; 0x8e0 <write_cmd>
 994:	8c e0       	ldi	r24, 0x0C	; 12
 996:	0e 94 70 04 	call	0x8e0	; 0x8e0 <write_cmd>
 99a:	df 91       	pop	r29
 99c:	cf 91       	pop	r28
 99e:	08 95       	ret

000009a0 <nokia_lcd_clear>:
 9a0:	80 e8       	ldi	r24, 0x80	; 128
 9a2:	0e 94 70 04 	call	0x8e0	; 0x8e0 <write_cmd>
 9a6:	80 e4       	ldi	r24, 0x40	; 64
 9a8:	0e 94 70 04 	call	0x8e0	; 0x8e0 <write_cmd>
 9ac:	10 92 61 03 	sts	0x0361, r1	; 0x800361 <nokia_lcd+0x1f8>
 9b0:	10 92 62 03 	sts	0x0362, r1	; 0x800362 <nokia_lcd+0x1f9>
 9b4:	80 e0       	ldi	r24, 0x00	; 0
 9b6:	90 e0       	ldi	r25, 0x00	; 0
 9b8:	05 c0       	rjmp	.+10     	; 0x9c4 <nokia_lcd_clear+0x24>
 9ba:	fc 01       	movw	r30, r24
 9bc:	e7 59       	subi	r30, 0x97	; 151
 9be:	fe 4f       	sbci	r31, 0xFE	; 254
 9c0:	10 82       	st	Z, r1
 9c2:	01 96       	adiw	r24, 0x01	; 1
 9c4:	88 3f       	cpi	r24, 0xF8	; 248
 9c6:	21 e0       	ldi	r18, 0x01	; 1
 9c8:	92 07       	cpc	r25, r18
 9ca:	b8 f3       	brcs	.-18     	; 0x9ba <nokia_lcd_clear+0x1a>
 9cc:	08 95       	ret

000009ce <nokia_lcd_set_pixel>:
}

void nokia_lcd_set_pixel(uint8_t x, uint8_t y, uint8_t value)
{
	uint8_t *byte = &nokia_lcd.screen[y/8*84+x];
 9ce:	26 2f       	mov	r18, r22
 9d0:	26 95       	lsr	r18
 9d2:	26 95       	lsr	r18
 9d4:	26 95       	lsr	r18
 9d6:	90 e0       	ldi	r25, 0x00	; 0
 9d8:	34 e5       	ldi	r19, 0x54	; 84
 9da:	23 9f       	mul	r18, r19
 9dc:	80 0d       	add	r24, r0
 9de:	91 1d       	adc	r25, r1
 9e0:	11 24       	eor	r1, r1
	if (value)
 9e2:	44 23       	and	r20, r20
 9e4:	79 f0       	breq	.+30     	; 0xa04 <nokia_lcd_set_pixel+0x36>
		*byte |= (1 << (y % 8));
 9e6:	67 70       	andi	r22, 0x07	; 7
 9e8:	21 e0       	ldi	r18, 0x01	; 1
 9ea:	30 e0       	ldi	r19, 0x00	; 0
 9ec:	02 c0       	rjmp	.+4      	; 0x9f2 <nokia_lcd_set_pixel+0x24>
 9ee:	22 0f       	add	r18, r18
 9f0:	33 1f       	adc	r19, r19
 9f2:	6a 95       	dec	r22
 9f4:	e2 f7       	brpl	.-8      	; 0x9ee <nokia_lcd_set_pixel+0x20>
 9f6:	fc 01       	movw	r30, r24
 9f8:	e7 59       	subi	r30, 0x97	; 151
 9fa:	fe 4f       	sbci	r31, 0xFE	; 254
 9fc:	80 81       	ld	r24, Z
 9fe:	28 2b       	or	r18, r24
 a00:	20 83       	st	Z, r18
 a02:	08 95       	ret
	else
		*byte &= ~(1 << (y %8 ));
 a04:	67 70       	andi	r22, 0x07	; 7
 a06:	21 e0       	ldi	r18, 0x01	; 1
 a08:	30 e0       	ldi	r19, 0x00	; 0
 a0a:	02 c0       	rjmp	.+4      	; 0xa10 <nokia_lcd_set_pixel+0x42>
 a0c:	22 0f       	add	r18, r18
 a0e:	33 1f       	adc	r19, r19
 a10:	6a 95       	dec	r22
 a12:	e2 f7       	brpl	.-8      	; 0xa0c <nokia_lcd_set_pixel+0x3e>
 a14:	fc 01       	movw	r30, r24
 a16:	e7 59       	subi	r30, 0x97	; 151
 a18:	fe 4f       	sbci	r31, 0xFE	; 254
 a1a:	20 95       	com	r18
 a1c:	80 81       	ld	r24, Z
 a1e:	28 23       	and	r18, r24
 a20:	20 83       	st	Z, r18
 a22:	08 95       	ret

00000a24 <nokia_lcd_write_char>:
}

void nokia_lcd_write_char(char code, uint8_t scale)
{
 a24:	ef 92       	push	r14
 a26:	ff 92       	push	r15
 a28:	0f 93       	push	r16
 a2a:	1f 93       	push	r17
 a2c:	cf 93       	push	r28
 a2e:	df 93       	push	r29
 a30:	e8 2e       	mov	r14, r24
 a32:	f6 2e       	mov	r15, r22
	register uint8_t x, y;

	for (x = 0; x < 5*scale; x++)
 a34:	00 e0       	ldi	r16, 0x00	; 0
 a36:	45 c0       	rjmp	.+138    	; 0xac2 <nokia_lcd_write_char+0x9e>
		for (y = 0; y < 7*scale; y++)
			if (pgm_read_byte(&CHARSET[code-32][x/scale]) & (1 << y/scale))
 a38:	2e 2d       	mov	r18, r14
 a3a:	30 e0       	ldi	r19, 0x00	; 0
 a3c:	20 52       	subi	r18, 0x20	; 32
 a3e:	31 09       	sbc	r19, r1
 a40:	80 2f       	mov	r24, r16
 a42:	6f 2d       	mov	r22, r15
 a44:	0e 94 c7 05 	call	0xb8e	; 0xb8e <__udivmodqi4>
 a48:	f9 01       	movw	r30, r18
 a4a:	ee 0f       	add	r30, r30
 a4c:	ff 1f       	adc	r31, r31
 a4e:	ee 0f       	add	r30, r30
 a50:	ff 1f       	adc	r31, r31
 a52:	e2 0f       	add	r30, r18
 a54:	f3 1f       	adc	r31, r19
 a56:	e8 0f       	add	r30, r24
 a58:	f1 1d       	adc	r31, r1
 a5a:	e8 59       	subi	r30, 0x98	; 152
 a5c:	ff 4f       	sbci	r31, 0xFF	; 255
 a5e:	e4 91       	lpm	r30, Z
 a60:	81 2f       	mov	r24, r17
 a62:	0e 94 c7 05 	call	0xb8e	; 0xb8e <__udivmodqi4>
 a66:	f0 e0       	ldi	r31, 0x00	; 0
 a68:	02 c0       	rjmp	.+4      	; 0xa6e <nokia_lcd_write_char+0x4a>
 a6a:	f5 95       	asr	r31
 a6c:	e7 95       	ror	r30
 a6e:	8a 95       	dec	r24
 a70:	e2 f7       	brpl	.-8      	; 0xa6a <nokia_lcd_write_char+0x46>
 a72:	e0 ff       	sbrs	r30, 0
 a74:	0a c0       	rjmp	.+20     	; 0xa8a <nokia_lcd_write_char+0x66>
				nokia_lcd_set_pixel(nokia_lcd.cursor_x + x, nokia_lcd.cursor_y + y, 1);
 a76:	60 91 62 03 	lds	r22, 0x0362	; 0x800362 <nokia_lcd+0x1f9>
 a7a:	80 91 61 03 	lds	r24, 0x0361	; 0x800361 <nokia_lcd+0x1f8>
 a7e:	61 0f       	add	r22, r17
 a80:	41 e0       	ldi	r20, 0x01	; 1
 a82:	80 0f       	add	r24, r16
 a84:	0e 94 e7 04 	call	0x9ce	; 0x9ce <nokia_lcd_set_pixel>
 a88:	09 c0       	rjmp	.+18     	; 0xa9c <nokia_lcd_write_char+0x78>
			else
				nokia_lcd_set_pixel(nokia_lcd.cursor_x + x, nokia_lcd.cursor_y + y, 0);
 a8a:	60 91 62 03 	lds	r22, 0x0362	; 0x800362 <nokia_lcd+0x1f9>
 a8e:	80 91 61 03 	lds	r24, 0x0361	; 0x800361 <nokia_lcd+0x1f8>
 a92:	61 0f       	add	r22, r17
 a94:	40 e0       	ldi	r20, 0x00	; 0
 a96:	80 0f       	add	r24, r16
 a98:	0e 94 e7 04 	call	0x9ce	; 0x9ce <nokia_lcd_set_pixel>
void nokia_lcd_write_char(char code, uint8_t scale)
{
	register uint8_t x, y;

	for (x = 0; x < 5*scale; x++)
		for (y = 0; y < 7*scale; y++)
 a9c:	1f 5f       	subi	r17, 0xFF	; 255
 a9e:	01 c0       	rjmp	.+2      	; 0xaa2 <nokia_lcd_write_char+0x7e>
 aa0:	10 e0       	ldi	r17, 0x00	; 0
 aa2:	21 2f       	mov	r18, r17
 aa4:	30 e0       	ldi	r19, 0x00	; 0
 aa6:	ce 01       	movw	r24, r28
 aa8:	88 0f       	add	r24, r24
 aaa:	99 1f       	adc	r25, r25
 aac:	88 0f       	add	r24, r24
 aae:	99 1f       	adc	r25, r25
 ab0:	88 0f       	add	r24, r24
 ab2:	99 1f       	adc	r25, r25
 ab4:	8c 1b       	sub	r24, r28
 ab6:	9d 0b       	sbc	r25, r29
 ab8:	28 17       	cp	r18, r24
 aba:	39 07       	cpc	r19, r25
 abc:	0c f4       	brge	.+2      	; 0xac0 <nokia_lcd_write_char+0x9c>
 abe:	bc cf       	rjmp	.-136    	; 0xa38 <nokia_lcd_write_char+0x14>

void nokia_lcd_write_char(char code, uint8_t scale)
{
	register uint8_t x, y;

	for (x = 0; x < 5*scale; x++)
 ac0:	0f 5f       	subi	r16, 0xFF	; 255
 ac2:	20 2f       	mov	r18, r16
 ac4:	30 e0       	ldi	r19, 0x00	; 0
 ac6:	cf 2d       	mov	r28, r15
 ac8:	d0 e0       	ldi	r29, 0x00	; 0
 aca:	ce 01       	movw	r24, r28
 acc:	88 0f       	add	r24, r24
 ace:	99 1f       	adc	r25, r25
 ad0:	88 0f       	add	r24, r24
 ad2:	99 1f       	adc	r25, r25
 ad4:	8c 0f       	add	r24, r28
 ad6:	9d 1f       	adc	r25, r29
 ad8:	28 17       	cp	r18, r24
 ada:	39 07       	cpc	r19, r25
 adc:	0c f3       	brlt	.-62     	; 0xaa0 <nokia_lcd_write_char+0x7c>
			if (pgm_read_byte(&CHARSET[code-32][x/scale]) & (1 << y/scale))
				nokia_lcd_set_pixel(nokia_lcd.cursor_x + x, nokia_lcd.cursor_y + y, 1);
			else
				nokia_lcd_set_pixel(nokia_lcd.cursor_x + x, nokia_lcd.cursor_y + y, 0);

	nokia_lcd.cursor_x += 5*scale + 1;
 ade:	e1 e6       	ldi	r30, 0x61	; 97
 ae0:	f3 e0       	ldi	r31, 0x03	; 3
 ae2:	8f 2d       	mov	r24, r15
 ae4:	88 0f       	add	r24, r24
 ae6:	88 0f       	add	r24, r24
 ae8:	8f 0d       	add	r24, r15
 aea:	90 81       	ld	r25, Z
 aec:	89 0f       	add	r24, r25
 aee:	8f 5f       	subi	r24, 0xFF	; 255
 af0:	80 83       	st	Z, r24
	if (nokia_lcd.cursor_x >= 84) {
 af2:	84 35       	cpi	r24, 0x54	; 84
 af4:	70 f0       	brcs	.+28     	; 0xb12 <nokia_lcd_write_char+0xee>
		nokia_lcd.cursor_x = 0;
 af6:	10 92 61 03 	sts	0x0361, r1	; 0x800361 <nokia_lcd+0x1f8>
		nokia_lcd.cursor_y += 7*scale + 1;
 afa:	e2 e6       	ldi	r30, 0x62	; 98
 afc:	f3 e0       	ldi	r31, 0x03	; 3
 afe:	8f 2d       	mov	r24, r15
 b00:	88 0f       	add	r24, r24
 b02:	88 0f       	add	r24, r24
 b04:	88 0f       	add	r24, r24
 b06:	98 2f       	mov	r25, r24
 b08:	9f 19       	sub	r25, r15
 b0a:	80 81       	ld	r24, Z
 b0c:	89 0f       	add	r24, r25
 b0e:	8f 5f       	subi	r24, 0xFF	; 255
 b10:	80 83       	st	Z, r24
	}
	if (nokia_lcd.cursor_y >= 48) {
 b12:	80 91 62 03 	lds	r24, 0x0362	; 0x800362 <nokia_lcd+0x1f9>
 b16:	80 33       	cpi	r24, 0x30	; 48
 b18:	20 f0       	brcs	.+8      	; 0xb22 <nokia_lcd_write_char+0xfe>
		nokia_lcd.cursor_x = 0;
 b1a:	10 92 61 03 	sts	0x0361, r1	; 0x800361 <nokia_lcd+0x1f8>
		nokia_lcd.cursor_y = 0;
 b1e:	10 92 62 03 	sts	0x0362, r1	; 0x800362 <nokia_lcd+0x1f9>
	}
}
 b22:	df 91       	pop	r29
 b24:	cf 91       	pop	r28
 b26:	1f 91       	pop	r17
 b28:	0f 91       	pop	r16
 b2a:	ff 90       	pop	r15
 b2c:	ef 90       	pop	r14
 b2e:	08 95       	ret

00000b30 <nokia_lcd_write_string>:

void nokia_lcd_write_string(const char *str, uint8_t scale)
{
 b30:	1f 93       	push	r17
 b32:	cf 93       	push	r28
 b34:	df 93       	push	r29
 b36:	ec 01       	movw	r28, r24
 b38:	16 2f       	mov	r17, r22
	while(*str)
 b3a:	04 c0       	rjmp	.+8      	; 0xb44 <nokia_lcd_write_string+0x14>
		nokia_lcd_write_char(*str++, scale);
 b3c:	21 96       	adiw	r28, 0x01	; 1
 b3e:	61 2f       	mov	r22, r17
 b40:	0e 94 12 05 	call	0xa24	; 0xa24 <nokia_lcd_write_char>
	}
}

void nokia_lcd_write_string(const char *str, uint8_t scale)
{
	while(*str)
 b44:	88 81       	ld	r24, Y
 b46:	81 11       	cpse	r24, r1
 b48:	f9 cf       	rjmp	.-14     	; 0xb3c <nokia_lcd_write_string+0xc>
		nokia_lcd_write_char(*str++, scale);
}
 b4a:	df 91       	pop	r29
 b4c:	cf 91       	pop	r28
 b4e:	1f 91       	pop	r17
 b50:	08 95       	ret

00000b52 <nokia_lcd_set_cursor>:

void nokia_lcd_set_cursor(uint8_t x, uint8_t y)
{
	nokia_lcd.cursor_x = x;
 b52:	80 93 61 03 	sts	0x0361, r24	; 0x800361 <nokia_lcd+0x1f8>
	nokia_lcd.cursor_y = y;
 b56:	60 93 62 03 	sts	0x0362, r22	; 0x800362 <nokia_lcd+0x1f9>
 b5a:	08 95       	ret

00000b5c <nokia_lcd_render>:
}

void nokia_lcd_render(void)
{
 b5c:	cf 93       	push	r28
 b5e:	df 93       	push	r29
	register unsigned i;
	/* Set column and row to 0 */
	write_cmd(0x80);
 b60:	80 e8       	ldi	r24, 0x80	; 128
 b62:	0e 94 70 04 	call	0x8e0	; 0x8e0 <write_cmd>
	write_cmd(0x40);
 b66:	80 e4       	ldi	r24, 0x40	; 64
 b68:	0e 94 70 04 	call	0x8e0	; 0x8e0 <write_cmd>

	/* Write screen to display */
	for (i = 0; i < 504; i++)
 b6c:	c0 e0       	ldi	r28, 0x00	; 0
 b6e:	d0 e0       	ldi	r29, 0x00	; 0
 b70:	07 c0       	rjmp	.+14     	; 0xb80 <nokia_lcd_render+0x24>
		write_data(nokia_lcd.screen[i]);
 b72:	fe 01       	movw	r30, r28
 b74:	e7 59       	subi	r30, 0x97	; 151
 b76:	fe 4f       	sbci	r31, 0xFE	; 254
 b78:	80 81       	ld	r24, Z
 b7a:	0e 94 74 04 	call	0x8e8	; 0x8e8 <write_data>
	/* Set column and row to 0 */
	write_cmd(0x80);
	write_cmd(0x40);

	/* Write screen to display */
	for (i = 0; i < 504; i++)
 b7e:	21 96       	adiw	r28, 0x01	; 1
 b80:	c8 3f       	cpi	r28, 0xF8	; 248
 b82:	81 e0       	ldi	r24, 0x01	; 1
 b84:	d8 07       	cpc	r29, r24
 b86:	a8 f3       	brcs	.-22     	; 0xb72 <nokia_lcd_render+0x16>
		write_data(nokia_lcd.screen[i]);
}
 b88:	df 91       	pop	r29
 b8a:	cf 91       	pop	r28
 b8c:	08 95       	ret

00000b8e <__udivmodqi4>:
 b8e:	99 1b       	sub	r25, r25
 b90:	79 e0       	ldi	r23, 0x09	; 9
 b92:	04 c0       	rjmp	.+8      	; 0xb9c <__udivmodqi4_ep>

00000b94 <__udivmodqi4_loop>:
 b94:	99 1f       	adc	r25, r25
 b96:	96 17       	cp	r25, r22
 b98:	08 f0       	brcs	.+2      	; 0xb9c <__udivmodqi4_ep>
 b9a:	96 1b       	sub	r25, r22

00000b9c <__udivmodqi4_ep>:
 b9c:	88 1f       	adc	r24, r24
 b9e:	7a 95       	dec	r23
 ba0:	c9 f7       	brne	.-14     	; 0xb94 <__udivmodqi4_loop>
 ba2:	80 95       	com	r24
 ba4:	08 95       	ret

00000ba6 <__umulhisi3>:
 ba6:	a2 9f       	mul	r26, r18
 ba8:	b0 01       	movw	r22, r0
 baa:	b3 9f       	mul	r27, r19
 bac:	c0 01       	movw	r24, r0
 bae:	a3 9f       	mul	r26, r19
 bb0:	70 0d       	add	r23, r0
 bb2:	81 1d       	adc	r24, r1
 bb4:	11 24       	eor	r1, r1
 bb6:	91 1d       	adc	r25, r1
 bb8:	b2 9f       	mul	r27, r18
 bba:	70 0d       	add	r23, r0
 bbc:	81 1d       	adc	r24, r1
 bbe:	11 24       	eor	r1, r1
 bc0:	91 1d       	adc	r25, r1
 bc2:	08 95       	ret

00000bc4 <_exit>:
 bc4:	f8 94       	cli

00000bc6 <__stop_program>:
 bc6:	ff cf       	rjmp	.-2      	; 0xbc6 <__stop_program>
